target datalayout = "e-m:e-p270:32:32-p271:32:32-p272:64:64-i64:64-i128:128-f80:128-n8:16:32:64-S128"
target triple = "x86_64-pc-linux-gnu"

%"class.icu_77::UnicodeString" = type { %"class.icu_77::Replaceable", %"union.icu_77::UnicodeString::StackBufferOrFields" }
%"class.icu_77::Replaceable" = type { %"class.icu_77::UObject" }
%"class.icu_77::UObject" = type { ptr }
%"union.icu_77::UnicodeString::StackBufferOrFields" = type { %struct.anon.0, [32 x i8] }
%struct.anon.0 = type { i16, i32, i32, ptr }
%"class.icu_77::DateIntervalFormat" = type <{ %"class.icu_77::Format", ptr, ptr, ptr, ptr, %"class.icu_77::Locale", %"class.icu_77::UnicodeString", [9 x %"struct.icu_77::DateIntervalFormat::PatternInfo"], ptr, ptr, ptr, i32, [4 x i8] }>
%"class.icu_77::Format" = type { %"class.icu_77::UObject", ptr, ptr }
%"class.icu_77::Locale" = type <{ %"class.icu_77::UObject", [12 x i8], [6 x i8], [4 x i8], [2 x i8], i32, [4 x i8], ptr, [157 x i8], [3 x i8], ptr, i8, [7 x i8] }>
%"struct.icu_77::DateIntervalFormat::PatternInfo" = type <{ %"class.icu_77::UnicodeString", %"class.icu_77::UnicodeString", i8, [7 x i8] }>

; Function Attrs: mustprogress uwtable
define void @_ZN6icu_7718DateIntervalFormat11setTimeZoneERKNS_8TimeZoneE(ptr noundef nonnull align 8 dereferenceable(1596) %0, ptr noundef nonnull align 8 dereferenceable(72) %1) unnamed_addr #1 align 2 {
  %3 = alloca ptr, align 8
  %4 = alloca ptr, align 8
  store ptr %0, ptr %3, align 8, !tbaa !39
  store ptr %1, ptr %4, align 8, !tbaa !122
  %5 = load ptr, ptr %3, align 8
  %6 = getelementptr inbounds nuw %"class.icu_77::DateIntervalFormat", ptr %5, i32 0, i32 2
  %7 = load ptr, ptr %6, align 8, !tbaa !58
  %8 = icmp ne ptr %7, null
  br i1 %8, label %9, label %16

9:                                                ; preds = %2
  %10 = getelementptr inbounds nuw %"class.icu_77::DateIntervalFormat", ptr %5, i32 0, i32 2
  %11 = load ptr, ptr %10, align 8, !tbaa !58
  %12 = load ptr, ptr %4, align 8, !tbaa !122
  %13 = load ptr, ptr %11, align 8, !tbaa !27
  %14 = getelementptr inbounds ptr, ptr %13, i64 24
  %15 = load ptr, ptr %14, align 8
  call void %15(ptr noundef nonnull align 8 dereferenceable(48) %11, ptr noundef nonnull align 8 dereferenceable(72) %12)
  br label %16

16:                                               ; preds = %9, %2
  %17 = getelementptr inbounds nuw %"class.icu_77::DateIntervalFormat", ptr %5, i32 0, i32 3
  %18 = load ptr, ptr %17, align 8, !tbaa !59
  %19 = icmp ne ptr %18, null
  br i1 %19, label %20, label %24

20:                                               ; preds = %16
  %21 = getelementptr inbounds nuw %"class.icu_77::DateIntervalFormat", ptr %5, i32 0, i32 3
  %22 = load ptr, ptr %21, align 8, !tbaa !59
  %23 = load ptr, ptr %4, align 8, !tbaa !122
  call void @_ZN6icu_778Calendar11setTimeZoneERKNS_8TimeZoneE(ptr noundef nonnull align 8 dereferenceable(192) %22, ptr noundef nonnull align 8 dereferenceable(72) %23)
  br label %24

24:                                               ; preds = %20, %16
  %25 = getelementptr inbounds nuw %"class.icu_77::DateIntervalFormat", ptr %5, i32 0, i32 4
  %26 = load ptr, ptr %25, align 8, !tbaa !60
  %27 = icmp ne ptr %26, null
  br i1 %27, label %28, label %32

28:                                               ; preds = %24
  %29 = getelementptr inbounds nuw %"class.icu_77::DateIntervalFormat", ptr %5, i32 0, i32 4
  %30 = load ptr, ptr %29, align 8, !tbaa !60
  %31 = load ptr, ptr %4, align 8, !tbaa !122
  call void @_ZN6icu_778Calendar11setTimeZoneERKNS_8TimeZoneE(ptr noundef nonnull align 8 dereferenceable(192) %30, ptr noundef nonnull align 8 dereferenceable(72) %31)
  br label %32

32:                                               ; preds = %28, %24
  ret void
}